; Function Attrs: nofree nounwind uwtable
define void @Wlc_NtkSimulatePrint(ptr noundef readonly captures(none) %0, ptr noundef readonly captures(none) %1, ptr noundef readonly captures(none) %2, i32 noundef %3, i32 noundef %4) local_unnamed_addr #5 {
  %6 = icmp sgt i32 %4, 0
  br i1 %6, label %.preheader36.lr.ph, label %._crit_edge46

.preheader36.lr.ph:                               ; preds = %5
  %7 = icmp sgt i32 %3, 0
  %8 = getelementptr i8, ptr %1, i64 4
  %9 = getelementptr i8, ptr %1, i64 8
  %10 = getelementptr i8, ptr %0, i64 640
  %11 = getelementptr i8, ptr %2, i64 8
  br i1 %7, label %.preheader36.us, label %.preheader36

.preheader36.us:                                  ; preds = %.preheader36.lr.ph, %._crit_edge.us
  %.045.us = phi i32 [ %47, %._crit_edge.us ], [ 0, %.preheader36.lr.ph ]
  %.02444.us = phi i32 [ %43, %._crit_edge.us ], [ 0, %.preheader36.lr.ph ]
  br label %.preheader35.us

12:                                               ; preds = %.critedge.us
  %13 = add nuw nsw i32 %.02343.us, 1
  %exitcond52.not = icmp eq i32 %13, %3
  br i1 %exitcond52.not, label %._crit_edge.us, label %.preheader35.us, !llvm.loop !79

.critedge.us:                                     ; preds = %25, %.preheader.us
  %14 = add i32 %.241.us, 1
  %putchar28.us = tail call i32 @putchar(i32 10)
  %exitcond51.not = icmp eq i32 %14, %43
  br i1 %exitcond51.not, label %12, label %.preheader.us, !llvm.loop !80

15:                                               ; preds = %.lr.ph.us, %25
  %indvars.iv48 = phi i64 [ 0, %.lr.ph.us ], [ %indvars.iv.next49, %25 ]
  %.val30.us = load ptr, ptr %9, align 8, !tbaa !49
  %16 = getelementptr inbounds nuw i32, ptr %.val30.us, i64 %indvars.iv48
  %17 = load i32, ptr %16, align 4, !tbaa !50
  %.val31.us = load ptr, ptr %10, align 8, !tbaa !51
  %18 = sext i32 %17 to i64
  %19 = getelementptr inbounds %struct.Wlc_Obj_t_, ptr %.val31.us, i64 %18
  %20 = getelementptr i8, ptr %19, i64 8
  %.val32.us = load i32, ptr %20, align 8, !tbaa !56
  %21 = getelementptr i8, ptr %19, i64 12
  %.val33.us = load i32, ptr %21, align 4, !tbaa !58
  %22 = sub i32 %.val33.us, %.val32.us
  %smax = tail call i32 @llvm.abs.i32(i32 %22, i1 false)
  %23 = add nuw i32 %smax, 1
  %24 = zext i32 %23 to i64
  br label %28

25:                                               ; preds = %28
  %putchar29.us = tail call i32 @putchar(i32 32)
  %indvars.iv.next49 = add nuw nsw i64 %indvars.iv48, 1
  %.val.us = load i32, ptr %8, align 4, !tbaa !47
  %26 = sext i32 %.val.us to i64
  %27 = icmp slt i64 %indvars.iv.next49, %26
  br i1 %27, label %15, label %.critedge.us, !llvm.loop !81

28:                                               ; preds = %28, %15
  %indvars.iv = phi i64 [ %indvars.iv.next, %28 ], [ %24, %15 ]
  %29 = trunc nuw i64 %indvars.iv to i32
  %.025.us = add i64 %indvars.iv, 4294967295
  %.val34.us = load ptr, ptr %11, align 8, !tbaa !9
  %30 = getelementptr inbounds nuw ptr, ptr %.val34.us, i64 %indvars.iv48
  %31 = load ptr, ptr %30, align 8, !tbaa !10
  %32 = getelementptr i8, ptr %31, i64 8
  %.val2.i.us = load ptr, ptr %32, align 8, !tbaa !13
  %33 = and i64 %.025.us, 4294967295
  %34 = getelementptr inbounds nuw ptr, ptr %.val2.i.us, i64 %33
  %35 = load ptr, ptr %34, align 8, !tbaa !10
  %36 = getelementptr inbounds i32, ptr %35, i64 %45
  %37 = load i32, ptr %36, align 4, !tbaa !50
  %38 = lshr i32 %37, %46
  %39 = and i32 %38, 1
  %40 = tail call i32 (ptr, ...) @printf(ptr noundef nonnull dereferenceable(1) @.str.1, i32 noundef %39)
  %41 = icmp sgt i32 %29, 1
  %indvars.iv.next = add nsw i64 %indvars.iv, -1
  br i1 %41, label %28, label %25, !llvm.loop !82

.preheader.us:                                    ; preds = %.preheader35.us, %.critedge.us
  %.241.us = phi i32 [ %.142.us, %.preheader35.us ], [ %14, %.critedge.us ]
  %.val38.us = load i32, ptr %8, align 4, !tbaa !47
  %42 = icmp sgt i32 %.val38.us, 0
  br i1 %42, label %.lr.ph.us, label %.critedge.us

.preheader35.us:                                  ; preds = %.preheader36.us, %12
  %.02343.us = phi i32 [ 0, %.preheader36.us ], [ %13, %12 ]
  %.142.us = phi i32 [ %.02444.us, %.preheader36.us ], [ %43, %12 ]
  %43 = add i32 %.142.us, 64
  br label %.preheader.us

.lr.ph.us:                                        ; preds = %.preheader.us
  %44 = ashr i32 %.241.us, 5
  %45 = sext i32 %44 to i64
  %46 = and i32 %.241.us, 31
  br label %15

._crit_edge.us:                                   ; preds = %12
  %47 = add nuw nsw i32 %.045.us, 1
  %putchar.us = tail call i32 @putchar(i32 10)
  %exitcond53.not = icmp eq i32 %47, %4
  br i1 %exitcond53.not, label %._crit_edge46, label %.preheader36.us, !llvm.loop !83

.preheader36:                                     ; preds = %.preheader36.lr.ph, %.preheader36
  %.045 = phi i32 [ %48, %.preheader36 ], [ 0, %.preheader36.lr.ph ]
  %48 = add nuw nsw i32 %.045, 1
  %putchar = tail call i32 @putchar(i32 10)
  %exitcond.not = icmp eq i32 %48, %4
  br i1 %exitcond.not, label %._crit_edge46, label %.preheader36, !llvm.loop !83

._crit_edge46:                                    ; preds = %.preheader36, %._crit_edge.us, %5
  ret void
}